; ModuleID = '22/562.c'
source_filename = "22/562.c"
target datalayout = "e-m:e-p270:32:32-p271:32:32-p272:64:64-i64:64-f80:128-n8:16:32:64-S128"
target triple = "x86_64-pc-linux-gnu"

@.str = private unnamed_addr constant [4 x i8] c"No\0A\00", align 1
@.str.1 = private unnamed_addr constant [4 x i8] c"%d\0A\00", align 1

; Function Attrs: noinline nounwind uwtable
define dso_local i32 @main() #0 {
  %1 = alloca i32, align 4
  %2 = alloca [301 x i32], align 16
  %3 = alloca i32, align 4
  %4 = alloca i32, align 4
  %5 = alloca i32, align 4
  %6 = alloca i32, align 4
  %7 = alloca i8, align 1
  store i32 0, i32* %1, align 4
  store i32 1, i32* %4, align 4
  store i32 0, i32* %6, align 4
  br label %8

8:                                                ; preds = %35, %0
  %9 = call i32 @getchar()
  %10 = trunc i32 %9 to i8
  store i8 %10, i8* %7, align 1
  %11 = sext i8 %10 to i32
  %12 = icmp ne i32 %11, 10
  br i1 %12, label %13, label %36

13:                                               ; preds = %8
  %14 = load i8, i8* %7, align 1
  %15 = sext i8 %14 to i32
  %16 = icmp sge i32 %15, 48
  br i1 %16, label %17, label %28

17:                                               ; preds = %13
  %18 = load i8, i8* %7, align 1
  %19 = sext i8 %18 to i32
  %20 = icmp sle i32 %19, 57
  br i1 %20, label %21, label %28

21:                                               ; preds = %17
  %22 = load i32, i32* %6, align 4
  %23 = mul nsw i32 %22, 10
  %24 = load i8, i8* %7, align 1
  %25 = sext i8 %24 to i32
  %26 = add nsw i32 %23, %25
  %27 = sub nsw i32 %26, 48
  store i32 %27, i32* %6, align 4
  br label %35

28:                                               ; preds = %17, %13
  %29 = load i32, i32* %6, align 4
  %30 = load i32, i32* %4, align 4
  %31 = sext i32 %30 to i64
  %32 = getelementptr inbounds [301 x i32], [301 x i32]* %2, i64 0, i64 %31
  store i32 %29, i32* %32, align 4
  %33 = load i32, i32* %4, align 4
  %34 = add nsw i32 %33, 1
  store i32 %34, i32* %4, align 4
  store i32 0, i32* %6, align 4
  br label %35

35:                                               ; preds = %28, %21
  br label %8

36:                                               ; preds = %8
  %37 = load i32, i32* %6, align 4
  %38 = load i32, i32* %4, align 4
  %39 = sext i32 %38 to i64
  %40 = getelementptr inbounds [301 x i32], [301 x i32]* %2, i64 0, i64 %39
  store i32 %37, i32* %40, align 4
  %41 = getelementptr inbounds [301 x i32], [301 x i32]* %2, i64 0, i64 1
  %42 = load i32, i32* %41, align 4
  store i32 %42, i32* %5, align 4
  store i32 2, i32* %3, align 4
  br label %43

43:                                               ; preds = %60, %36
  %44 = load i32, i32* %3, align 4
  %45 = load i32, i32* %4, align 4
  %46 = icmp sle i32 %44, %45
  br i1 %46, label %47, label %63

47:                                               ; preds = %43
  %48 = load i32, i32* %5, align 4
  %49 = load i32, i32* %3, align 4
  %50 = sext i32 %49 to i64
  %51 = getelementptr inbounds [301 x i32], [301 x i32]* %2, i64 0, i64 %50
  %52 = load i32, i32* %51, align 4
  %53 = icmp slt i32 %48, %52
  br i1 %53, label %54, label %59

54:                                               ; preds = %47
  %55 = load i32, i32* %3, align 4
  %56 = sext i32 %55 to i64
  %57 = getelementptr inbounds [301 x i32], [301 x i32]* %2, i64 0, i64 %56
  %58 = load i32, i32* %57, align 4
  store i32 %58, i32* %5, align 4
  br label %59

59:                                               ; preds = %54, %47
  br label %60

60:                                               ; preds = %59
  %61 = load i32, i32* %3, align 4
  %62 = add nsw i32 %61, 1
  store i32 %62, i32* %3, align 4
  br label %43

63:                                               ; preds = %43
  store i32 1, i32* %3, align 4
  br label %64

64:                                               ; preds = %80, %63
  %65 = load i32, i32* %3, align 4
  %66 = load i32, i32* %4, align 4
  %67 = icmp sle i32 %65, %66
  br i1 %67, label %68, label %83

68:                                               ; preds = %64
  %69 = load i32, i32* %3, align 4
  %70 = sext i32 %69 to i64
  %71 = getelementptr inbounds [301 x i32], [301 x i32]* %2, i64 0, i64 %70
  %72 = load i32, i32* %71, align 4
  %73 = load i32, i32* %5, align 4
  %74 = icmp eq i32 %72, %73
  br i1 %74, label %75, label %79

75:                                               ; preds = %68
  %76 = load i32, i32* %3, align 4
  %77 = sext i32 %76 to i64
  %78 = getelementptr inbounds [301 x i32], [301 x i32]* %2, i64 0, i64 %77
  store i32 0, i32* %78, align 4
  br label %79

79:                                               ; preds = %75, %68
  br label %80

80:                                               ; preds = %79
  %81 = load i32, i32* %3, align 4
  %82 = add nsw i32 %81, 1
  store i32 %82, i32* %3, align 4
  br label %64

83:                                               ; preds = %64
  %84 = getelementptr inbounds [301 x i32], [301 x i32]* %2, i64 0, i64 1
  %85 = load i32, i32* %84, align 4
  store i32 %85, i32* %5, align 4
  store i32 2, i32* %3, align 4
  br label %86

86:                                               ; preds = %103, %83
  %87 = load i32, i32* %3, align 4
  %88 = load i32, i32* %4, align 4
  %89 = icmp sle i32 %87, %88
  br i1 %89, label %90, label %106

90:                                               ; preds = %86
  %91 = load i32, i32* %5, align 4
  %92 = load i32, i32* %3, align 4
  %93 = sext i32 %92 to i64
  %94 = getelementptr inbounds [301 x i32], [301 x i32]* %2, i64 0, i64 %93
  %95 = load i32, i32* %94, align 4
  %96 = icmp slt i32 %91, %95
  br i1 %96, label %97, label %102

97:                                               ; preds = %90
  %98 = load i32, i32* %3, align 4
  %99 = sext i32 %98 to i64
  %100 = getelementptr inbounds [301 x i32], [301 x i32]* %2, i64 0, i64 %99
  %101 = load i32, i32* %100, align 4
  store i32 %101, i32* %5, align 4
  br label %102

102:                                              ; preds = %97, %90
  br label %103

103:                                              ; preds = %102
  %104 = load i32, i32* %3, align 4
  %105 = add nsw i32 %104, 1
  store i32 %105, i32* %3, align 4
  br label %86

106:                                              ; preds = %86
  %107 = load i32, i32* %4, align 4
  %108 = icmp eq i32 %107, 1
  br i1 %108, label %112, label %109

109:                                              ; preds = %106
  %110 = load i32, i32* %5, align 4
  %111 = icmp eq i32 %110, 0
  br i1 %111, label %112, label %114

112:                                              ; preds = %109, %106
  %113 = call i32 (i8*, ...) @printf(i8* getelementptr inbounds ([4 x i8], [4 x i8]* @.str, i64 0, i64 0))
  br label %117

114:                                              ; preds = %109
  %115 = load i32, i32* %5, align 4
  %116 = call i32 (i8*, ...) @printf(i8* getelementptr inbounds ([4 x i8], [4 x i8]* @.str.1, i64 0, i64 0), i32 %115)
  br label %117

117:                                              ; preds = %114, %112
  ret i32 0
}

declare dso_local i32 @getchar() #1

declare dso_local i32 @printf(i8*, ...) #1


!llvm.module.flags = !{!0}
!llvm.ident = !{!1}

!0 = !{i32 1, !"wchar_size", i32 4}
!1 = !{!"clang version 10.0.0-4ubuntu1 "}
